target datalayout = "e-m:e-p270:32:32-p271:32:32-p272:64:64-i64:64-i128:128-f80:128-n8:16:32:64-S128"
target triple = "x86_64-pc-linux-gnu"

%struct.__loadu_ps = type { <4 x float> }
%struct.stbir__contributors = type { i32, i32 }
%struct.__mm_storel_epi64_struct = type { i64 }
%struct.__mm_load_ss_struct = type { float }
%struct.__mm_loadl_epi64_struct = type { i64 }

; Function Attrs: alwaysinline nounwind uwtable
define available_externally void @_mm_storel_epi64(ptr noundef %0, <2 x i64> noundef %1) #2 {
  %3 = alloca ptr, align 8
  %4 = alloca <2 x i64>, align 16
  store ptr %0, ptr %3, align 8, !tbaa !3
  store <2 x i64> %1, ptr %4, align 16, !tbaa !12
  %5 = load <2 x i64>, ptr %4, align 16, !tbaa !12
  %6 = extractelement <2 x i64> %5, i32 0
  %7 = load ptr, ptr %3, align 8, !tbaa !3
  %8 = getelementptr inbounds nuw %struct.__mm_storel_epi64_struct, ptr %7, i32 0, i32 0
  store i64 %6, ptr %8, align 1, !tbaa !12
  ret void
}

; Function Attrs: alwaysinline nounwind uwtable
define available_externally <2 x i64> @_mm_loadl_epi64(ptr noundef %0) #2 {
  %2 = alloca ptr, align 8
  %3 = alloca <2 x i64>, align 16
  store ptr %0, ptr %2, align 8, !tbaa !3
  %4 = load ptr, ptr %2, align 8, !tbaa !3
  %5 = getelementptr inbounds nuw %struct.__mm_loadl_epi64_struct, ptr %4, i32 0, i32 0
  %6 = load i64, ptr %5, align 1, !tbaa !12
  %7 = insertelement <2 x i64> poison, i64 %6, i32 0
  %8 = insertelement <2 x i64> %7, i64 0, i32 1
  store <2 x i64> %8, ptr %3, align 16, !tbaa !12
  %9 = load <2 x i64>, ptr %3, align 16, !tbaa !12
  ret <2 x i64> %9
}

; Function Attrs: alwaysinline nounwind uwtable
define available_externally <4 x float> @_mm_load_ss(ptr noundef %0) #2 {
  %2 = alloca ptr, align 8
  %3 = alloca float, align 4
  %4 = alloca <4 x float>, align 16
  store ptr %0, ptr %2, align 8, !tbaa !21
  call void @llvm.lifetime.start.p0(i64 4, ptr %3) #12
  %5 = load ptr, ptr %2, align 8, !tbaa !21
  %6 = getelementptr inbounds nuw %struct.__mm_load_ss_struct, ptr %5, i32 0, i32 0
  %7 = load float, ptr %6, align 1, !tbaa !12
  store float %7, ptr %3, align 4, !tbaa !29
  %8 = load float, ptr %3, align 4, !tbaa !29
  %9 = insertelement <4 x float> poison, float %8, i32 0
  %10 = insertelement <4 x float> %9, float 0.000000e+00, i32 1
  %11 = insertelement <4 x float> %10, float 0.000000e+00, i32 2
  %12 = insertelement <4 x float> %11, float 0.000000e+00, i32 3
  store <4 x float> %12, ptr %4, align 16, !tbaa !12
  %13 = load <4 x float>, ptr %4, align 16, !tbaa !12
  call void @llvm.lifetime.end.p0(i64 4, ptr %3) #12
  ret <4 x float> %13
}

; Function Attrs: alwaysinline nounwind uwtable
define available_externally <4 x float> @_mm_add_ps(<4 x float> noundef %0, <4 x float> noundef %1) #2 {
  %3 = alloca <4 x float>, align 16
  %4 = alloca <4 x float>, align 16
  store <4 x float> %0, ptr %3, align 16, !tbaa !12
  store <4 x float> %1, ptr %4, align 16, !tbaa !12
  %5 = load <4 x float>, ptr %3, align 16, !tbaa !12
  %6 = load <4 x float>, ptr %4, align 16, !tbaa !12
  %7 = fadd <4 x float> %5, %6
  ret <4 x float> %7
}

; Function Attrs: alwaysinline nounwind uwtable
define available_externally <4 x float> @_mm_mul_ps(<4 x float> noundef %0, <4 x float> noundef %1) #2 {
  %3 = alloca <4 x float>, align 16
  %4 = alloca <4 x float>, align 16
  store <4 x float> %0, ptr %3, align 16, !tbaa !12
  store <4 x float> %1, ptr %4, align 16, !tbaa !12
  %5 = load <4 x float>, ptr %3, align 16, !tbaa !12
  %6 = load <4 x float>, ptr %4, align 16, !tbaa !12
  %7 = fmul <4 x float> %5, %6
  ret <4 x float> %7
}

; Function Attrs: alwaysinline nounwind uwtable
define available_externally <4 x float> @_mm_castsi128_ps(<2 x i64> noundef %0) #2 {
  %2 = alloca <2 x i64>, align 16
  store <2 x i64> %0, ptr %2, align 16, !tbaa !12
  %3 = load <2 x i64>, ptr %2, align 16, !tbaa !12
  %4 = bitcast <2 x i64> %3 to <4 x float>
  ret <4 x float> %4
}

; Function Attrs: alwaysinline nounwind uwtable
define available_externally <2 x i64> @_mm_castps_si128(<4 x float> noundef %0) #2 {
  %2 = alloca <4 x float>, align 16
  store <4 x float> %0, ptr %2, align 16, !tbaa !12
  %3 = load <4 x float>, ptr %2, align 16, !tbaa !12
  %4 = bitcast <4 x float> %3 to <2 x i64>
  ret <2 x i64> %4
}

; Function Attrs: alwaysinline nounwind uwtable
define available_externally <4 x float> @_mm_loadu_ps(ptr noundef %0) #2 {
  %2 = alloca ptr, align 8
  store ptr %0, ptr %2, align 8, !tbaa !21
  %3 = load ptr, ptr %2, align 8, !tbaa !21
  %4 = getelementptr inbounds nuw %struct.__loadu_ps, ptr %3, i32 0, i32 0
  %5 = load <4 x float>, ptr %4, align 1, !tbaa !12
  ret <4 x float> %5
}

; Function Attrs: nounwind uwtable
define void @stbir__horizontal_gather_2_channels_with_9_coeffs(ptr noundef %0, i32 noundef %1, ptr noundef %2, ptr noundef %3, ptr noundef %4, i32 noundef %5) #0 {
  %7 = alloca ptr, align 8
  %8 = alloca i32, align 4
  %9 = alloca ptr, align 8
  %10 = alloca ptr, align 8
  %11 = alloca ptr, align 8
  %12 = alloca i32, align 4
  %13 = alloca ptr, align 8
  %14 = alloca ptr, align 8
  %15 = alloca ptr, align 8
  %16 = alloca ptr, align 8
  %17 = alloca <4 x float>, align 16
  %18 = alloca <4 x float>, align 16
  %19 = alloca <4 x float>, align 16
  %20 = alloca <4 x float>, align 16
  %21 = alloca <4 x float>, align 16
  store ptr %0, ptr %7, align 8, !tbaa !21
  store i32 %1, ptr %8, align 4, !tbaa !26
  store ptr %2, ptr %9, align 8, !tbaa !21
  store ptr %3, ptr %10, align 8, !tbaa !3
  store ptr %4, ptr %11, align 8, !tbaa !21
  store i32 %5, ptr %12, align 4, !tbaa !26
  call void @llvm.lifetime.start.p0(i64 8, ptr %13) #12
  %22 = load ptr, ptr %7, align 8, !tbaa !21
  %23 = load i32, ptr %8, align 4, !tbaa !26
  %24 = mul i32 %23, 2
  %25 = zext i32 %24 to i64
  %26 = getelementptr inbounds nuw float, ptr %22, i64 %25
  store ptr %26, ptr %13, align 8, !tbaa !21
  call void @llvm.lifetime.start.p0(i64 8, ptr %14) #12
  %27 = load ptr, ptr %7, align 8, !tbaa !21
  store ptr %27, ptr %14, align 8, !tbaa !21
  br label %28

28:                                               ; preds = %133, %6
  call void @llvm.lifetime.start.p0(i64 8, ptr %15) #12
  %29 = load ptr, ptr %9, align 8, !tbaa !21
  %30 = load ptr, ptr %10, align 8, !tbaa !3
  %31 = getelementptr inbounds nuw %struct.stbir__contributors, ptr %30, i32 0, i32 0
  %32 = load i32, ptr %31, align 4, !tbaa !41
  %33 = mul nsw i32 %32, 2
  %34 = sext i32 %33 to i64
  %35 = getelementptr inbounds float, ptr %29, i64 %34
  store ptr %35, ptr %15, align 8, !tbaa !21
  call void @llvm.lifetime.start.p0(i64 8, ptr %16) #12
  %36 = load ptr, ptr %11, align 8, !tbaa !21
  store ptr %36, ptr %16, align 8, !tbaa !21
  call void @llvm.lifetime.start.p0(i64 16, ptr %17) #12
  call void @llvm.lifetime.start.p0(i64 16, ptr %18) #12
  call void @llvm.lifetime.start.p0(i64 16, ptr %19) #12
  call void @llvm.lifetime.start.p0(i64 16, ptr %20) #12
  %37 = load ptr, ptr %15, align 8, !tbaa !21
  call void asm sideeffect "", "r,~{dirflag},~{fpsr},~{flags}"(ptr %37) #12, !srcloc !602
  %38 = load ptr, ptr %16, align 8, !tbaa !21
  %39 = call <4 x float> @_mm_loadu_ps(ptr noundef %38)
  store <4 x float> %39, ptr %20, align 16, !tbaa !12
  %40 = load <4 x float>, ptr %20, align 16, !tbaa !12
  %41 = call <2 x i64> @_mm_castps_si128(<4 x float> noundef %40)
  %42 = bitcast <2 x i64> %41 to <4 x i32>
  %43 = shufflevector <4 x i32> %42, <4 x i32> poison, <4 x i32> <i32 0, i32 0, i32 1, i32 1>
  %44 = bitcast <4 x i32> %43 to <2 x i64>
  %45 = call <4 x float> @_mm_castsi128_ps(<2 x i64> noundef %44)
  store <4 x float> %45, ptr %19, align 16, !tbaa !12
  %46 = load <4 x float>, ptr %19, align 16, !tbaa !12
  %47 = load ptr, ptr %15, align 8, !tbaa !21
  %48 = call <4 x float> @_mm_loadu_ps(ptr noundef %47)
  %49 = call <4 x float> @_mm_mul_ps(<4 x float> noundef %46, <4 x float> noundef %48)
  store <4 x float> %49, ptr %17, align 16, !tbaa !12
  %50 = load <4 x float>, ptr %20, align 16, !tbaa !12
  %51 = call <2 x i64> @_mm_castps_si128(<4 x float> noundef %50)
  %52 = bitcast <2 x i64> %51 to <4 x i32>
  %53 = shufflevector <4 x i32> %52, <4 x i32> poison, <4 x i32> <i32 2, i32 2, i32 3, i32 3>
  %54 = bitcast <4 x i32> %53 to <2 x i64>
  %55 = call <4 x float> @_mm_castsi128_ps(<2 x i64> noundef %54)
  store <4 x float> %55, ptr %19, align 16, !tbaa !12
  %56 = load <4 x float>, ptr %19, align 16, !tbaa !12
  %57 = load ptr, ptr %15, align 8, !tbaa !21
  %58 = getelementptr inbounds float, ptr %57, i64 4
  %59 = call <4 x float> @_mm_loadu_ps(ptr noundef %58)
  %60 = call <4 x float> @_mm_mul_ps(<4 x float> noundef %56, <4 x float> noundef %59)
  store <4 x float> %60, ptr %18, align 16, !tbaa !12
  %61 = load ptr, ptr %15, align 8, !tbaa !21
  call void asm sideeffect "", "r,~{dirflag},~{fpsr},~{flags}"(ptr %61) #12, !srcloc !603
  %62 = load ptr, ptr %16, align 8, !tbaa !21
  %63 = getelementptr inbounds float, ptr %62, i64 4
  %64 = call <4 x float> @_mm_loadu_ps(ptr noundef %63)
  store <4 x float> %64, ptr %20, align 16, !tbaa !12
  %65 = load <4 x float>, ptr %20, align 16, !tbaa !12
  %66 = call <2 x i64> @_mm_castps_si128(<4 x float> noundef %65)
  %67 = bitcast <2 x i64> %66 to <4 x i32>
  %68 = shufflevector <4 x i32> %67, <4 x i32> poison, <4 x i32> <i32 0, i32 0, i32 1, i32 1>
  %69 = bitcast <4 x i32> %68 to <2 x i64>
  %70 = call <4 x float> @_mm_castsi128_ps(<2 x i64> noundef %69)
  store <4 x float> %70, ptr %19, align 16, !tbaa !12
  %71 = load <4 x float>, ptr %17, align 16, !tbaa !12
  %72 = load <4 x float>, ptr %19, align 16, !tbaa !12
  %73 = load ptr, ptr %15, align 8, !tbaa !21
  %74 = getelementptr inbounds float, ptr %73, i64 8
  %75 = call <4 x float> @_mm_loadu_ps(ptr noundef %74)
  %76 = call <4 x float> @_mm_mul_ps(<4 x float> noundef %72, <4 x float> noundef %75)
  %77 = call <4 x float> @_mm_add_ps(<4 x float> noundef %71, <4 x float> noundef %76)
  store <4 x float> %77, ptr %17, align 16, !tbaa !12
  %78 = load <4 x float>, ptr %20, align 16, !tbaa !12
  %79 = call <2 x i64> @_mm_castps_si128(<4 x float> noundef %78)
  %80 = bitcast <2 x i64> %79 to <4 x i32>
  %81 = shufflevector <4 x i32> %80, <4 x i32> poison, <4 x i32> <i32 2, i32 2, i32 3, i32 3>
  %82 = bitcast <4 x i32> %81 to <2 x i64>
  %83 = call <4 x float> @_mm_castsi128_ps(<2 x i64> noundef %82)
  store <4 x float> %83, ptr %19, align 16, !tbaa !12
  %84 = load <4 x float>, ptr %18, align 16, !tbaa !12
  %85 = load <4 x float>, ptr %19, align 16, !tbaa !12
  %86 = load ptr, ptr %15, align 8, !tbaa !21
  %87 = getelementptr inbounds float, ptr %86, i64 8
  %88 = getelementptr inbounds float, ptr %87, i64 4
  %89 = call <4 x float> @_mm_loadu_ps(ptr noundef %88)
  %90 = call <4 x float> @_mm_mul_ps(<4 x float> noundef %85, <4 x float> noundef %89)
  %91 = call <4 x float> @_mm_add_ps(<4 x float> noundef %84, <4 x float> noundef %90)
  store <4 x float> %91, ptr %18, align 16, !tbaa !12
  call void @llvm.lifetime.start.p0(i64 16, ptr %21) #12
  %92 = load ptr, ptr %16, align 8, !tbaa !21
  %93 = getelementptr inbounds float, ptr %92, i64 8
  %94 = call <4 x float> @_mm_load_ss(ptr noundef %93)
  store <4 x float> %94, ptr %20, align 16, !tbaa !12
  %95 = load <4 x float>, ptr %20, align 16, !tbaa !12
  %96 = call <2 x i64> @_mm_castps_si128(<4 x float> noundef %95)
  %97 = bitcast <2 x i64> %96 to <4 x i32>
  %98 = shufflevector <4 x i32> %97, <4 x i32> poison, <4 x i32> <i32 0, i32 0, i32 1, i32 1>
  %99 = bitcast <4 x i32> %98 to <2 x i64>
  %100 = call <4 x float> @_mm_castsi128_ps(<2 x i64> noundef %99)
  store <4 x float> %100, ptr %19, align 16, !tbaa !12
  %101 = load ptr, ptr %15, align 8, !tbaa !21
  %102 = getelementptr inbounds float, ptr %101, i64 16
  %103 = call <2 x i64> @_mm_loadl_epi64(ptr noundef %102)
  %104 = call <4 x float> @_mm_castsi128_ps(<2 x i64> noundef %103)
  store <4 x float> %104, ptr %21, align 16, !tbaa !12
  %105 = load <4 x float>, ptr %17, align 16, !tbaa !12
  %106 = load <4 x float>, ptr %21, align 16, !tbaa !12
  %107 = load <4 x float>, ptr %19, align 16, !tbaa !12
  %108 = call <4 x float> @_mm_mul_ps(<4 x float> noundef %106, <4 x float> noundef %107)
  %109 = call <4 x float> @_mm_add_ps(<4 x float> noundef %105, <4 x float> noundef %108)
  store <4 x float> %109, ptr %17, align 16, !tbaa !12
  call void @llvm.lifetime.end.p0(i64 16, ptr %21) #12
  %110 = load <4 x float>, ptr %17, align 16, !tbaa !12
  %111 = load <4 x float>, ptr %18, align 16, !tbaa !12
  %112 = call <4 x float> @_mm_add_ps(<4 x float> noundef %110, <4 x float> noundef %111)
  store <4 x float> %112, ptr %17, align 16, !tbaa !12
  %113 = load <4 x float>, ptr %17, align 16, !tbaa !12
  %114 = call <2 x i64> @_mm_castps_si128(<4 x float> noundef %113)
  %115 = bitcast <2 x i64> %114 to <4 x i32>
  %116 = shufflevector <4 x i32> %115, <4 x i32> poison, <4 x i32> <i32 2, i32 3, i32 0, i32 1>
  %117 = bitcast <4 x i32> %116 to <2 x i64>
  %118 = call <4 x float> @_mm_castsi128_ps(<2 x i64> noundef %117)
  store <4 x float> %118, ptr %19, align 16, !tbaa !12
  %119 = load <4 x float>, ptr %17, align 16, !tbaa !12
  %120 = load <4 x float>, ptr %19, align 16, !tbaa !12
  %121 = call <4 x float> @_mm_add_ps(<4 x float> noundef %119, <4 x float> noundef %120)
  store <4 x float> %121, ptr %17, align 16, !tbaa !12
  %122 = load ptr, ptr %14, align 8, !tbaa !21
  %123 = load <4 x float>, ptr %17, align 16, !tbaa !12
  %124 = call <2 x i64> @_mm_castps_si128(<4 x float> noundef %123)
  call void @_mm_storel_epi64(ptr noundef %122, <2 x i64> noundef %124)
  %125 = load i32, ptr %12, align 4, !tbaa !26
  %126 = load ptr, ptr %11, align 8, !tbaa !21
  %127 = sext i32 %125 to i64
  %128 = getelementptr inbounds float, ptr %126, i64 %127
  store ptr %128, ptr %11, align 8, !tbaa !21
  %129 = load ptr, ptr %10, align 8, !tbaa !3
  %130 = getelementptr inbounds nuw %struct.stbir__contributors, ptr %129, i32 1
  store ptr %130, ptr %10, align 8, !tbaa !3
  %131 = load ptr, ptr %14, align 8, !tbaa !21
  %132 = getelementptr inbounds float, ptr %131, i64 2
  store ptr %132, ptr %14, align 8, !tbaa !21
  call void @llvm.lifetime.end.p0(i64 16, ptr %20) #12
  call void @llvm.lifetime.end.p0(i64 16, ptr %19) #12
  call void @llvm.lifetime.end.p0(i64 16, ptr %18) #12
  call void @llvm.lifetime.end.p0(i64 16, ptr %17) #12
  call void @llvm.lifetime.end.p0(i64 8, ptr %16) #12
  call void @llvm.lifetime.end.p0(i64 8, ptr %15) #12
  br label %133

133:                                              ; preds = %28
  %134 = load ptr, ptr %14, align 8, !tbaa !21
  %135 = load ptr, ptr %13, align 8, !tbaa !21
  %136 = icmp ult ptr %134, %135
  br i1 %136, label %28, label %137, !llvm.loop !604

137:                                              ; preds = %133
  call void @llvm.lifetime.end.p0(i64 8, ptr %14) #12
  call void @llvm.lifetime.end.p0(i64 8, ptr %13) #12
  ret void
}