; Function Attrs: nounwind uwtable
define void @stbir__horizontal_gather_2_channels_with_9_coeffs(ptr noundef writeonly captures(address) %0, i32 noundef %1, ptr noundef %2, ptr noundef readonly captures(none) %3, ptr noundef readonly captures(none) %4, i32 noundef %5) #0 {
  %7 = shl i32 %1, 1
  %8 = zext i32 %7 to i64
  %9 = getelementptr inbounds nuw float, ptr %0, i64 %8
  %10 = sext i32 %5 to i64
  br label %11

11:                                               ; preds = %11, %6
  %.043 = phi ptr [ %0, %6 ], [ %53, %11 ]
  %.042 = phi ptr [ %4, %6 ], [ %51, %11 ]
  %.0 = phi ptr [ %3, %6 ], [ %52, %11 ]
  %12 = load i32, ptr %.0, align 4, !tbaa !34
  %13 = shl nsw i32 %12, 1
  %14 = sext i32 %13 to i64
  %15 = getelementptr inbounds float, ptr %2, i64 %14
  tail call void asm sideeffect "", "r,~{dirflag},~{fpsr},~{flags}"(ptr %15) #24, !srcloc !526
  %16 = load <4 x float>, ptr %.042, align 1, !tbaa !4
  %17 = shufflevector <4 x float> %16, <4 x float> poison, <4 x i32> <i32 0, i32 0, i32 1, i32 1>
  %18 = load <4 x float>, ptr %15, align 1, !tbaa !4
  %19 = fmul <4 x float> %18, %17
  %20 = shufflevector <4 x float> %16, <4 x float> poison, <4 x i32> <i32 2, i32 2, i32 3, i32 3>
  %21 = getelementptr inbounds nuw i8, ptr %15, i64 16
  %22 = load <4 x float>, ptr %21, align 1, !tbaa !4
  %23 = fmul <4 x float> %20, %22
  tail call void asm sideeffect "", "r,~{dirflag},~{fpsr},~{flags}"(ptr nonnull %15) #24, !srcloc !527
  %24 = getelementptr inbounds nuw i8, ptr %.042, i64 16
  %25 = load <4 x float>, ptr %24, align 1, !tbaa !4
  %26 = shufflevector <4 x float> %25, <4 x float> poison, <4 x i32> <i32 0, i32 0, i32 1, i32 1>
  %27 = getelementptr inbounds nuw i8, ptr %15, i64 32
  %28 = load <4 x float>, ptr %27, align 1, !tbaa !4
  %29 = fmul <4 x float> %28, %26
  %30 = fadd <4 x float> %19, %29
  %31 = shufflevector <4 x float> %25, <4 x float> poison, <4 x i32> <i32 2, i32 2, i32 3, i32 3>
  %32 = getelementptr inbounds nuw i8, ptr %15, i64 48
  %33 = load <4 x float>, ptr %32, align 1, !tbaa !4
  %34 = fmul <4 x float> %31, %33
  %35 = fadd <4 x float> %23, %34
  %36 = getelementptr inbounds nuw i8, ptr %.042, i64 32
  %37 = load float, ptr %36, align 1, !tbaa !4
  %38 = insertelement <4 x float> <float poison, float 0.000000e+00, float poison, float poison>, float %37, i64 0
  %39 = shufflevector <4 x float> %38, <4 x float> poison, <4 x i32> <i32 0, i32 0, i32 1, i32 1>
  %40 = getelementptr inbounds nuw i8, ptr %15, i64 64
  %41 = load i64, ptr %40, align 1, !tbaa !4
  %42 = insertelement <2 x i64> <i64 poison, i64 0>, i64 %41, i64 0
  %43 = bitcast <2 x i64> %42 to <4 x float>
  %44 = fmul <4 x float> %39, %43
  %45 = fadd <4 x float> %30, %44
  %46 = fadd <4 x float> %35, %45
  %47 = shufflevector <4 x float> %46, <4 x float> poison, <4 x i32> <i32 2, i32 3, i32 poison, i32 poison>
  %48 = fadd <4 x float> %46, %47
  %49 = bitcast <4 x float> %48 to <2 x i64>
  %50 = extractelement <2 x i64> %49, i64 0
  store i64 %50, ptr %.043, align 1, !tbaa !4
  %51 = getelementptr inbounds float, ptr %.042, i64 %10
  %52 = getelementptr inbounds nuw i8, ptr %.0, i64 8
  %53 = getelementptr inbounds nuw i8, ptr %.043, i64 8
  %54 = icmp ult ptr %53, %9
  br i1 %54, label %11, label %55, !llvm.loop !528

55:                                               ; preds = %11
  ret void
}